target datalayout = "e-m:e-p270:32:32-p271:32:32-p272:64:64-i64:64-i128:128-f80:128-n8:16:32:64-S128"
target triple = "x86_64-pc-linux-gnu"

%struct.AVCodecContext = type { ptr, i32, i32, ptr, i32, i32, ptr, ptr, ptr, i64, i32, i32, ptr, i32, %struct.AVRational, %struct.AVRational, %struct.AVRational, i32, i32, i32, i32, i32, %struct.AVRational, i32, i32, i32, i32, i32, i32, i32, i32, i32, i32, i32, ptr, ptr, i32, float, float, float, float, float, float, float, float, float, i32, i32, i32, i32, i32, i32, i32, i32, i32, i32, i32, i32, ptr, ptr, ptr, i32, i32, i32, i32, i32, i32, i32, i32, i32, i32, %struct.AVChannelLayout, i32, i32, i32, i32, i32, i32, i32, i32, ptr, i32, i32, i32, float, float, i32, i32, i32, i32, i32, ptr, i64, i64, float, float, i32, i32, ptr, ptr, i32, i32, i32, i32, i32, ptr, ptr, ptr, ptr, i32, i32, [8 x i64], i32, i32, i32, i32, i32, i32, i32, ptr, ptr, i32, i32, i32, i32, i32, i32, i32, i32, i32, i32, ptr, ptr, i32, i32, ptr, ptr, ptr, ptr, i32, i32, i64, i32, i32, i64, ptr, i64, ptr, i32, ptr, i32 }
%struct.AVRational = type { i32, i32 }
%struct.AVChannelLayout = type { i32, i32, %union.anon, ptr }
%union.anon = type { i64 }
%struct.AVCodecInternal = type { i32, i32, i32, ptr, ptr, ptr, ptr, ptr, ptr, ptr, i32, ptr, ptr, ptr, i32, i32, ptr, i32, ptr, ptr, i32, i32 }
%struct.SliceThreadContext = type { ptr, ptr, ptr, ptr, ptr, ptr, i32 }
%struct.FFCodec = type { %struct.AVCodec, i32, i32, ptr, ptr, ptr, ptr, %union.anon.0, ptr, ptr, ptr, ptr, ptr, ptr }
%struct.AVCodec = type { ptr, ptr, i32, i32, i32, i8, ptr, ptr, ptr, ptr, ptr, ptr, ptr, ptr }
%union.anon.0 = type { ptr }

; Function Attrs: alwaysinline nounwind uwtable
define internal ptr @ffcodec(ptr noundef %0) #4 {
  %2 = alloca ptr, align 8
  store ptr %0, ptr %2, align 8, !tbaa !56
  %3 = load ptr, ptr %2, align 8, !tbaa !56
  ret ptr %3
}

; Function Attrs: cold nounwind optsize uwtable
define i32 @ff_slice_thread_init(ptr noundef %0) #0 {
  %2 = alloca i32, align 4
  %3 = alloca ptr, align 8
  %4 = alloca ptr, align 8
  %5 = alloca i32, align 4
  %6 = alloca ptr, align 8
  %7 = alloca i32, align 4
  %8 = alloca i32, align 4
  store ptr %0, ptr %3, align 8, !tbaa !4
  call void @llvm.lifetime.start.p0(i64 8, ptr %4) #5
  call void @llvm.lifetime.start.p0(i64 4, ptr %5) #5
  %9 = load ptr, ptr %3, align 8, !tbaa !4
  %10 = getelementptr inbounds nuw %struct.AVCodecContext, ptr %9, i32 0, i32 116
  %11 = load i32, ptr %10, align 8, !tbaa !46
  store i32 %11, ptr %5, align 4, !tbaa !40
  call void @llvm.lifetime.start.p0(i64 8, ptr %6) #5
  %12 = load i32, ptr %5, align 4, !tbaa !40
  %13 = icmp ne i32 %12, 0
  br i1 %13, label %57, label %14

14:                                               ; preds = %1
  call void @llvm.lifetime.start.p0(i64 4, ptr %7) #5
  %15 = call i32 @av_cpu_count()
  store i32 %15, ptr %7, align 4, !tbaa !40
  %16 = load ptr, ptr %3, align 8, !tbaa !4
  %17 = getelementptr inbounds nuw %struct.AVCodecContext, ptr %16, i32 0, i32 19
  %18 = load i32, ptr %17, align 4, !tbaa !52
  %19 = icmp ne i32 %18, 0
  br i1 %19, label %20, label %38

20:                                               ; preds = %14
  %21 = load i32, ptr %7, align 4, !tbaa !40
  %22 = load ptr, ptr %3, align 8, !tbaa !4
  %23 = getelementptr inbounds nuw %struct.AVCodecContext, ptr %22, i32 0, i32 19
  %24 = load i32, ptr %23, align 4, !tbaa !52
  %25 = add nsw i32 %24, 15
  %26 = sdiv i32 %25, 16
  %27 = icmp sgt i32 %21, %26
  br i1 %27, label %28, label %34

28:                                               ; preds = %20
  %29 = load ptr, ptr %3, align 8, !tbaa !4
  %30 = getelementptr inbounds nuw %struct.AVCodecContext, ptr %29, i32 0, i32 19
  %31 = load i32, ptr %30, align 4, !tbaa !52
  %32 = add nsw i32 %31, 15
  %33 = sdiv i32 %32, 16
  br label %36

34:                                               ; preds = %20
  %35 = load i32, ptr %7, align 4, !tbaa !40
  br label %36

36:                                               ; preds = %34, %28
  %37 = phi i32 [ %33, %28 ], [ %35, %34 ]
  store i32 %37, ptr %7, align 4, !tbaa !40
  br label %38

38:                                               ; preds = %36, %14
  %39 = load i32, ptr %7, align 4, !tbaa !40
  %40 = icmp sgt i32 %39, 1
  br i1 %40, label %41, label %53

41:                                               ; preds = %38
  %42 = load i32, ptr %7, align 4, !tbaa !40
  %43 = add nsw i32 %42, 1
  %44 = icmp sgt i32 %43, 16
  br i1 %44, label %45, label %46

45:                                               ; preds = %41
  br label %49

46:                                               ; preds = %41
  %47 = load i32, ptr %7, align 4, !tbaa !40
  %48 = add nsw i32 %47, 1
  br label %49

49:                                               ; preds = %46, %45
  %50 = phi i32 [ 16, %45 ], [ %48, %46 ]
  %51 = load ptr, ptr %3, align 8, !tbaa !4
  %52 = getelementptr inbounds nuw %struct.AVCodecContext, ptr %51, i32 0, i32 116
  store i32 %50, ptr %52, align 8, !tbaa !46
  store i32 %50, ptr %5, align 4, !tbaa !40
  br label %56

53:                                               ; preds = %38
  %54 = load ptr, ptr %3, align 8, !tbaa !4
  %55 = getelementptr inbounds nuw %struct.AVCodecContext, ptr %54, i32 0, i32 116
  store i32 1, ptr %55, align 8, !tbaa !46
  store i32 1, ptr %5, align 4, !tbaa !40
  br label %56

56:                                               ; preds = %53, %49
  call void @llvm.lifetime.end.p0(i64 4, ptr %7) #5
  br label %57

57:                                               ; preds = %56, %1
  %58 = load i32, ptr %5, align 4, !tbaa !40
  %59 = icmp sle i32 %58, 1
  br i1 %59, label %60, label %63

60:                                               ; preds = %57
  %61 = load ptr, ptr %3, align 8, !tbaa !4
  %62 = getelementptr inbounds nuw %struct.AVCodecContext, ptr %61, i32 0, i32 118
  store i32 0, ptr %62, align 8, !tbaa !45
  store i32 0, ptr %2, align 4
  store i32 1, ptr %8, align 4
  br label %112

63:                                               ; preds = %57
  %64 = call noalias ptr @av_mallocz(i64 noundef 56)
  store ptr %64, ptr %4, align 8, !tbaa !36
  %65 = load ptr, ptr %3, align 8, !tbaa !4
  %66 = getelementptr inbounds nuw %struct.AVCodecContext, ptr %65, i32 0, i32 7
  %67 = load ptr, ptr %66, align 8, !tbaa !9
  %68 = getelementptr inbounds nuw %struct.AVCodecInternal, ptr %67, i32 0, i32 5
  store ptr %64, ptr %68, align 8, !tbaa !29
  %69 = load ptr, ptr %4, align 8, !tbaa !36
  %70 = icmp ne ptr %69, null
  br i1 %70, label %72, label %71

71:                                               ; preds = %63
  store i32 -12, ptr %2, align 4
  store i32 1, ptr %8, align 4
  br label %112

72:                                               ; preds = %63
  %73 = load ptr, ptr %3, align 8, !tbaa !4
  %74 = getelementptr inbounds nuw %struct.AVCodecContext, ptr %73, i32 0, i32 3
  %75 = load ptr, ptr %74, align 8, !tbaa !53
  %76 = call ptr @ffcodec(ptr noundef %75)
  %77 = getelementptr inbounds nuw %struct.FFCodec, ptr %76, i32 0, i32 1
  %78 = load i32, ptr %77, align 8
  %79 = and i32 %78, 67108863
  %80 = and i32 %79, 32
  %81 = icmp ne i32 %80, 0
  %82 = select i1 %81, ptr @main_function, ptr null
  store ptr %82, ptr %6, align 8, !tbaa !38
  %83 = load ptr, ptr %4, align 8, !tbaa !36
  %84 = getelementptr inbounds nuw %struct.SliceThreadContext, ptr %83, i32 0, i32 0
  %85 = load ptr, ptr %3, align 8, !tbaa !4
  %86 = load ptr, ptr %6, align 8, !tbaa !38
  %87 = load i32, ptr %5, align 4, !tbaa !40
  %88 = call i32 @avpriv_slicethread_create(ptr noundef %84, ptr noundef %85, ptr noundef @worker_func, ptr noundef %86, i32 noundef %87)
  store i32 %88, ptr %5, align 4, !tbaa !40
  %89 = load i32, ptr %5, align 4, !tbaa !40
  %90 = icmp sle i32 %89, 1
  br i1 %90, label %91, label %104

91:                                               ; preds = %72
  %92 = load ptr, ptr %3, align 8, !tbaa !4
  call void @ff_slice_thread_free(ptr noundef %92) #6
  %93 = load ptr, ptr %3, align 8, !tbaa !4
  %94 = getelementptr inbounds nuw %struct.AVCodecContext, ptr %93, i32 0, i32 116
  store i32 1, ptr %94, align 8, !tbaa !46
  %95 = load ptr, ptr %3, align 8, !tbaa !4
  %96 = getelementptr inbounds nuw %struct.AVCodecContext, ptr %95, i32 0, i32 118
  store i32 0, ptr %96, align 8, !tbaa !45
  %97 = load i32, ptr %5, align 4, !tbaa !40
  %98 = icmp slt i32 %97, 0
  br i1 %98, label %99, label %101

99:                                               ; preds = %91
  %100 = load i32, ptr %5, align 4, !tbaa !40
  br label %102

101:                                              ; preds = %91
  br label %102

102:                                              ; preds = %101, %99
  %103 = phi i32 [ %100, %99 ], [ 0, %101 ]
  store i32 %103, ptr %2, align 4
  store i32 1, ptr %8, align 4
  br label %112

104:                                              ; preds = %72
  %105 = load i32, ptr %5, align 4, !tbaa !40
  %106 = load ptr, ptr %3, align 8, !tbaa !4
  %107 = getelementptr inbounds nuw %struct.AVCodecContext, ptr %106, i32 0, i32 116
  store i32 %105, ptr %107, align 8, !tbaa !46
  %108 = load ptr, ptr %3, align 8, !tbaa !4
  %109 = getelementptr inbounds nuw %struct.AVCodecContext, ptr %108, i32 0, i32 119
  store ptr @thread_execute, ptr %109, align 8, !tbaa !54
  %110 = load ptr, ptr %3, align 8, !tbaa !4
  %111 = getelementptr inbounds nuw %struct.AVCodecContext, ptr %110, i32 0, i32 120
  store ptr @thread_execute2, ptr %111, align 8, !tbaa !55
  store i32 0, ptr %2, align 4
  store i32 1, ptr %8, align 4
  br label %112

112:                                              ; preds = %104, %102, %71, %60
  call void @llvm.lifetime.end.p0(i64 8, ptr %6) #5
  call void @llvm.lifetime.end.p0(i64 4, ptr %5) #5
  call void @llvm.lifetime.end.p0(i64 8, ptr %4) #5
  %113 = load i32, ptr %2, align 4
  ret i32 %113
}