; Function Attrs: cold nounwind optsize uwtable
define range(i32 -2147483648, 1) i32 @ff_slice_thread_init(ptr noundef %0) local_unnamed_addr #0 {
  %2 = getelementptr inbounds nuw i8, ptr %0, i64 656
  %3 = load i32, ptr %2, align 8, !tbaa !39
  %.not = icmp eq i32 %3, 0
  br i1 %.not, label %4, label %15

4:                                                ; preds = %1
  %5 = tail call i32 @av_cpu_count() #4
  %6 = getelementptr inbounds nuw i8, ptr %0, i64 116
  %7 = load i32, ptr %6, align 4, !tbaa !45
  %.not40 = icmp eq i32 %7, 0
  br i1 %.not40, label %11, label %8

8:                                                ; preds = %4
  %9 = add nsw i32 %7, 15
  %10 = sdiv i32 %9, 16
  %. = tail call i32 @llvm.smin.i32(i32 %5, i32 %10)
  br label %11

11:                                               ; preds = %8, %4
  %.0 = phi i32 [ %., %8 ], [ %5, %4 ]
  %12 = icmp sgt i32 %.0, 1
  %13 = tail call i32 @llvm.smin.i32(i32 %.0, i32 15)
  %14 = add nuw nsw i32 %13, 1
  %storemerge = select i1 %12, i32 %14, i32 1
  store i32 %storemerge, ptr %2, align 8, !tbaa !39
  br label %15

15:                                               ; preds = %11, %1
  %.032 = phi i32 [ %3, %1 ], [ %storemerge, %11 ]
  %16 = icmp slt i32 %.032, 2
  br i1 %16, label %17, label %19

17:                                               ; preds = %15
  %18 = getelementptr inbounds nuw i8, ptr %0, i64 664
  store i32 0, ptr %18, align 8, !tbaa !38
  br label %39

19:                                               ; preds = %15
  %20 = tail call noalias ptr @av_mallocz(i64 noundef 56) #4
  %21 = getelementptr inbounds nuw i8, ptr %0, i64 40
  %22 = load ptr, ptr %21, align 8, !tbaa !4
  %23 = getelementptr inbounds nuw i8, ptr %22, i64 32
  store ptr %20, ptr %23, align 8, !tbaa !27
  %.not41 = icmp eq ptr %20, null
  br i1 %.not41, label %39, label %24

24:                                               ; preds = %19
  %25 = getelementptr inbounds nuw i8, ptr %0, i64 16
  %26 = load ptr, ptr %25, align 8, !tbaa !46
  %27 = getelementptr inbounds nuw i8, ptr %26, i64 96
  %28 = load i32, ptr %27, align 8
  %29 = and i32 %28, 32
  %.not42 = icmp eq i32 %29, 0
  %30 = select i1 %.not42, ptr null, ptr @main_function
  %31 = tail call i32 @avpriv_slicethread_create(ptr noundef nonnull %20, ptr noundef nonnull %0, ptr noundef nonnull @worker_func, ptr noundef %30, i32 noundef %.032) #4
  %32 = icmp slt i32 %31, 2
  br i1 %32, label %33, label %36

33:                                               ; preds = %24
  tail call void @ff_slice_thread_free(ptr noundef nonnull %0) #5
  store i32 1, ptr %2, align 8, !tbaa !39
  %34 = getelementptr inbounds nuw i8, ptr %0, i64 664
  store i32 0, ptr %34, align 8, !tbaa !38
  %35 = tail call i32 @llvm.smin.i32(i32 %31, i32 0)
  br label %39

36:                                               ; preds = %24
  store i32 %31, ptr %2, align 8, !tbaa !39
  %37 = getelementptr inbounds nuw i8, ptr %0, i64 672
  store ptr @thread_execute, ptr %37, align 8, !tbaa !47
  %38 = getelementptr inbounds nuw i8, ptr %0, i64 680
  store ptr @thread_execute2, ptr %38, align 8, !tbaa !48
  br label %39

39:                                               ; preds = %19, %36, %33, %17
  %.031 = phi i32 [ 0, %17 ], [ %35, %33 ], [ 0, %36 ], [ -12, %19 ]
  ret i32 %.031
}